target datalayout = "e-m:e-p270:32:32-p271:32:32-p272:64:64-i64:64-i128:128-f80:128-n8:16:32:64-S128"
target triple = "x86_64-pc-linux-gnu"

; Function Attrs: alwaysinline nounwind uwtable
define internal void @draw_edges_lr(ptr noundef %0, i64 noundef %1, i32 noundef %2, i32 noundef %3, i32 noundef %4) #4 {
  %6 = alloca ptr, align 8
  %7 = alloca i64, align 8
  %8 = alloca i32, align 4
  %9 = alloca i32, align 4
  %10 = alloca i32, align 4
  %11 = alloca i32, align 4
  store ptr %0, ptr %6, align 8, !tbaa !27
  store i64 %1, ptr %7, align 8, !tbaa !29
  store i32 %2, ptr %8, align 4, !tbaa !20
  store i32 %3, ptr %9, align 4, !tbaa !20
  store i32 %4, ptr %10, align 4, !tbaa !20
  call void @llvm.lifetime.start.p0(i64 4, ptr %11) #7
  store i32 0, ptr %11, align 4, !tbaa !20
  br label %12

12:                                               ; preds = %47, %5
  %13 = load i32, ptr %11, align 4, !tbaa !20
  %14 = load i32, ptr %9, align 4, !tbaa !20
  %15 = icmp slt i32 %13, %14
  br i1 %15, label %17, label %16

16:                                               ; preds = %12
  call void @llvm.lifetime.end.p0(i64 4, ptr %11) #7
  br label %50

17:                                               ; preds = %12
  %18 = load ptr, ptr %6, align 8, !tbaa !27
  %19 = load i32, ptr %10, align 4, !tbaa !20
  %20 = sext i32 %19 to i64
  %21 = sub i64 0, %20
  %22 = getelementptr inbounds i8, ptr %18, i64 %21
  %23 = load ptr, ptr %6, align 8, !tbaa !27
  %24 = getelementptr inbounds i8, ptr %23, i64 0
  %25 = load i8, ptr %24, align 1, !tbaa !31
  %26 = zext i8 %25 to i32
  %27 = trunc i32 %26 to i8
  %28 = load i32, ptr %10, align 4, !tbaa !20
  %29 = sext i32 %28 to i64
  call void @llvm.memset.p0.i64(ptr align 1 %22, i8 %27, i64 %29, i1 false)
  %30 = load ptr, ptr %6, align 8, !tbaa !27
  %31 = load i32, ptr %8, align 4, !tbaa !20
  %32 = sext i32 %31 to i64
  %33 = getelementptr inbounds i8, ptr %30, i64 %32
  %34 = load ptr, ptr %6, align 8, !tbaa !27
  %35 = load i32, ptr %8, align 4, !tbaa !20
  %36 = sub nsw i32 %35, 1
  %37 = sext i32 %36 to i64
  %38 = getelementptr inbounds i8, ptr %34, i64 %37
  %39 = load i8, ptr %38, align 1, !tbaa !31
  %40 = zext i8 %39 to i32
  %41 = trunc i32 %40 to i8
  %42 = load i32, ptr %10, align 4, !tbaa !20
  %43 = sext i32 %42 to i64
  call void @llvm.memset.p0.i64(ptr align 1 %33, i8 %41, i64 %43, i1 false)
  %44 = load i64, ptr %7, align 8, !tbaa !29
  %45 = load ptr, ptr %6, align 8, !tbaa !27
  %46 = getelementptr inbounds i8, ptr %45, i64 %44
  store ptr %46, ptr %6, align 8, !tbaa !27
  br label %47

47:                                               ; preds = %17
  %48 = load i32, ptr %11, align 4, !tbaa !20
  %49 = add nsw i32 %48, 1
  store i32 %49, ptr %11, align 4, !tbaa !20
  br label %12, !llvm.loop !48

50:                                               ; preds = %16
  ret void
}

; Function Attrs: nounwind uwtable
define internal void @draw_edges_8_c(ptr noundef %0, i64 noundef %1, i32 noundef %2, i32 noundef %3, i32 noundef %4, i32 noundef %5, i32 noundef %6) #1 {
  %8 = alloca ptr, align 8
  %9 = alloca i64, align 8
  %10 = alloca i32, align 4
  %11 = alloca i32, align 4
  %12 = alloca i32, align 4
  %13 = alloca i32, align 4
  %14 = alloca i32, align 4
  %15 = alloca ptr, align 8
  %16 = alloca i32, align 4
  store ptr %0, ptr %8, align 8, !tbaa !27
  store i64 %1, ptr %9, align 8, !tbaa !29
  store i32 %2, ptr %10, align 4, !tbaa !20
  store i32 %3, ptr %11, align 4, !tbaa !20
  store i32 %4, ptr %12, align 4, !tbaa !20
  store i32 %5, ptr %13, align 4, !tbaa !20
  store i32 %6, ptr %14, align 4, !tbaa !20
  call void @llvm.lifetime.start.p0(i64 8, ptr %15) #7
  call void @llvm.lifetime.start.p0(i64 4, ptr %16) #7
  %17 = load i32, ptr %12, align 4, !tbaa !20
  %18 = icmp eq i32 %17, 16
  br i1 %18, label %19, label %24

19:                                               ; preds = %7
  %20 = load ptr, ptr %8, align 8, !tbaa !27
  %21 = load i64, ptr %9, align 8, !tbaa !29
  %22 = load i32, ptr %10, align 4, !tbaa !20
  %23 = load i32, ptr %11, align 4, !tbaa !20
  call void @draw_edges_lr(ptr noundef %20, i64 noundef %21, i32 noundef %22, i32 noundef %23, i32 noundef 16)
  br label %38

24:                                               ; preds = %7
  %25 = load i32, ptr %12, align 4, !tbaa !20
  %26 = icmp eq i32 %25, 8
  br i1 %26, label %27, label %32

27:                                               ; preds = %24
  %28 = load ptr, ptr %8, align 8, !tbaa !27
  %29 = load i64, ptr %9, align 8, !tbaa !29
  %30 = load i32, ptr %10, align 4, !tbaa !20
  %31 = load i32, ptr %11, align 4, !tbaa !20
  call void @draw_edges_lr(ptr noundef %28, i64 noundef %29, i32 noundef %30, i32 noundef %31, i32 noundef 8)
  br label %37

32:                                               ; preds = %24
  %33 = load ptr, ptr %8, align 8, !tbaa !27
  %34 = load i64, ptr %9, align 8, !tbaa !29
  %35 = load i32, ptr %10, align 4, !tbaa !20
  %36 = load i32, ptr %11, align 4, !tbaa !20
  call void @draw_edges_lr(ptr noundef %33, i64 noundef %34, i32 noundef %35, i32 noundef %36, i32 noundef 4)
  br label %37

37:                                               ; preds = %32, %27
  br label %38

38:                                               ; preds = %37, %19
  %39 = load i32, ptr %12, align 4, !tbaa !20
  %40 = load ptr, ptr %8, align 8, !tbaa !27
  %41 = sext i32 %39 to i64
  %42 = sub i64 0, %41
  %43 = getelementptr inbounds i8, ptr %40, i64 %42
  store ptr %43, ptr %8, align 8, !tbaa !27
  %44 = load ptr, ptr %8, align 8, !tbaa !27
  %45 = load i32, ptr %11, align 4, !tbaa !20
  %46 = sub nsw i32 %45, 1
  %47 = sext i32 %46 to i64
  %48 = load i64, ptr %9, align 8, !tbaa !29
  %49 = mul nsw i64 %47, %48
  %50 = getelementptr inbounds i8, ptr %44, i64 %49
  store ptr %50, ptr %15, align 8, !tbaa !27
  %51 = load i32, ptr %14, align 4, !tbaa !20
  %52 = and i32 %51, 1
  %53 = icmp ne i32 %52, 0
  br i1 %53, label %54, label %79

54:                                               ; preds = %38
  store i32 0, ptr %16, align 4, !tbaa !20
  br label %55

55:                                               ; preds = %75, %54
  %56 = load i32, ptr %16, align 4, !tbaa !20
  %57 = load i32, ptr %13, align 4, !tbaa !20
  %58 = icmp slt i32 %56, %57
  br i1 %58, label %59, label %78

59:                                               ; preds = %55
  %60 = load ptr, ptr %8, align 8, !tbaa !27
  %61 = load i32, ptr %16, align 4, !tbaa !20
  %62 = add nsw i32 %61, 1
  %63 = sext i32 %62 to i64
  %64 = load i64, ptr %9, align 8, !tbaa !29
  %65 = mul nsw i64 %63, %64
  %66 = sub i64 0, %65
  %67 = getelementptr inbounds i8, ptr %60, i64 %66
  %68 = load ptr, ptr %8, align 8, !tbaa !27
  %69 = load i32, ptr %10, align 4, !tbaa !20
  %70 = load i32, ptr %12, align 4, !tbaa !20
  %71 = add nsw i32 %69, %70
  %72 = load i32, ptr %12, align 4, !tbaa !20
  %73 = add nsw i32 %71, %72
  %74 = sext i32 %73 to i64
  call void @llvm.memcpy.p0.p0.i64(ptr align 1 %67, ptr align 1 %68, i64 %74, i1 false)
  br label %75

75:                                               ; preds = %59
  %76 = load i32, ptr %16, align 4, !tbaa !20
  %77 = add nsw i32 %76, 1
  store i32 %77, ptr %16, align 4, !tbaa !20
  br label %55, !llvm.loop !46

78:                                               ; preds = %55
  br label %79

79:                                               ; preds = %78, %38
  %80 = load i32, ptr %14, align 4, !tbaa !20
  %81 = and i32 %80, 2
  %82 = icmp ne i32 %81, 0
  br i1 %82, label %83, label %107

83:                                               ; preds = %79
  store i32 0, ptr %16, align 4, !tbaa !20
  br label %84

84:                                               ; preds = %103, %83
  %85 = load i32, ptr %16, align 4, !tbaa !20
  %86 = load i32, ptr %13, align 4, !tbaa !20
  %87 = icmp slt i32 %85, %86
  br i1 %87, label %88, label %106

88:                                               ; preds = %84
  %89 = load ptr, ptr %15, align 8, !tbaa !27
  %90 = load i32, ptr %16, align 4, !tbaa !20
  %91 = add nsw i32 %90, 1
  %92 = sext i32 %91 to i64
  %93 = load i64, ptr %9, align 8, !tbaa !29
  %94 = mul nsw i64 %92, %93
  %95 = getelementptr inbounds i8, ptr %89, i64 %94
  %96 = load ptr, ptr %15, align 8, !tbaa !27
  %97 = load i32, ptr %10, align 4, !tbaa !20
  %98 = load i32, ptr %12, align 4, !tbaa !20
  %99 = add nsw i32 %97, %98
  %100 = load i32, ptr %12, align 4, !tbaa !20
  %101 = add nsw i32 %99, %100
  %102 = sext i32 %101 to i64
  call void @llvm.memcpy.p0.p0.i64(ptr align 1 %95, ptr align 1 %96, i64 %102, i1 false)
  br label %103

103:                                              ; preds = %88
  %104 = load i32, ptr %16, align 4, !tbaa !20
  %105 = add nsw i32 %104, 1
  store i32 %105, ptr %16, align 4, !tbaa !20
  br label %84, !llvm.loop !47

106:                                              ; preds = %84
  br label %107

107:                                              ; preds = %106, %79
  call void @llvm.lifetime.end.p0(i64 4, ptr %16) #7
  call void @llvm.lifetime.end.p0(i64 8, ptr %15) #7
  ret void
}