; Function Attrs: nofree norecurse nosync nounwind memory(argmem: readwrite) uwtable
define internal void @draw_edges_8_c(ptr noundef captures(none) %0, i64 noundef %1, i32 noundef %2, i32 noundef %3, i32 noundef %4, i32 noundef %5, i32 noundef %6) #2 {
  %8 = icmp sgt i32 %3, 0
  switch i32 %4, label %.preheader51 [
    i32 16, label %.preheader52
    i32 8, label %.preheader54
  ]

.preheader54:                                     ; preds = %7
  br i1 %8, label %.lr.ph, label %draw_edges_lr.exit

.lr.ph:                                           ; preds = %.preheader54
  %9 = sext i32 %2 to i64
  br label %20

.preheader52:                                     ; preds = %7
  br i1 %8, label %.lr.ph60, label %draw_edges_lr.exit

.lr.ph60:                                         ; preds = %.preheader52
  %10 = sext i32 %2 to i64
  br label %12

.preheader51:                                     ; preds = %7
  br i1 %8, label %.lr.ph63, label %draw_edges_lr.exit

.lr.ph63:                                         ; preds = %.preheader51
  %11 = sext i32 %2 to i64
  br label %28

12:                                               ; preds = %.lr.ph60, %12
  %.0.i59 = phi i32 [ 0, %.lr.ph60 ], [ %19, %12 ]
  %.013.i58 = phi ptr [ %0, %.lr.ph60 ], [ %18, %12 ]
  %13 = getelementptr inbounds i8, ptr %.013.i58, i64 -16
  %14 = load i8, ptr %.013.i58, align 1, !tbaa !20
  tail call void @llvm.memset.p0.i64(ptr noundef nonnull align 1 dereferenceable(16) %13, i8 %14, i64 16, i1 false)
  %15 = getelementptr inbounds i8, ptr %.013.i58, i64 %10
  %16 = getelementptr i8, ptr %15, i64 -1
  %17 = load i8, ptr %16, align 1, !tbaa !20
  tail call void @llvm.memset.p0.i64(ptr noundef nonnull align 1 dereferenceable(16) %15, i8 %17, i64 16, i1 false)
  %18 = getelementptr inbounds i8, ptr %.013.i58, i64 %1
  %19 = add nuw nsw i32 %.0.i59, 1
  %exitcond71.not = icmp eq i32 %19, %3
  br i1 %exitcond71.not, label %draw_edges_lr.exit, label %12, !llvm.loop !34

20:                                               ; preds = %.lr.ph, %20
  %.0.i4457 = phi i32 [ 0, %.lr.ph ], [ %27, %20 ]
  %.013.i4356 = phi ptr [ %0, %.lr.ph ], [ %26, %20 ]
  %21 = getelementptr inbounds i8, ptr %.013.i4356, i64 -8
  %22 = load i8, ptr %.013.i4356, align 1, !tbaa !20
  tail call void @llvm.memset.p0.i64(ptr noundef nonnull align 1 dereferenceable(8) %21, i8 %22, i64 8, i1 false)
  %23 = getelementptr inbounds i8, ptr %.013.i4356, i64 %9
  %24 = getelementptr i8, ptr %23, i64 -1
  %25 = load i8, ptr %24, align 1, !tbaa !20
  tail call void @llvm.memset.p0.i64(ptr noundef nonnull align 1 dereferenceable(8) %23, i8 %25, i64 8, i1 false)
  %26 = getelementptr inbounds i8, ptr %.013.i4356, i64 %1
  %27 = add nuw nsw i32 %.0.i4457, 1
  %exitcond.not = icmp eq i32 %27, %3
  br i1 %exitcond.not, label %draw_edges_lr.exit, label %20, !llvm.loop !34

28:                                               ; preds = %.lr.ph63, %28
  %.0.i4762 = phi i32 [ 0, %.lr.ph63 ], [ %35, %28 ]
  %.013.i4661 = phi ptr [ %0, %.lr.ph63 ], [ %34, %28 ]
  %29 = getelementptr inbounds i8, ptr %.013.i4661, i64 -4
  %30 = load i8, ptr %.013.i4661, align 1, !tbaa !20
  tail call void @llvm.memset.p0.i64(ptr noundef nonnull align 1 dereferenceable(4) %29, i8 %30, i64 4, i1 false)
  %31 = getelementptr inbounds i8, ptr %.013.i4661, i64 %11
  %32 = getelementptr i8, ptr %31, i64 -1
  %33 = load i8, ptr %32, align 1, !tbaa !20
  tail call void @llvm.memset.p0.i64(ptr noundef nonnull align 1 dereferenceable(4) %31, i8 %33, i64 4, i1 false)
  %34 = getelementptr inbounds i8, ptr %.013.i4661, i64 %1
  %35 = add nuw nsw i32 %.0.i4762, 1
  %exitcond72.not = icmp eq i32 %35, %3
  br i1 %exitcond72.not, label %draw_edges_lr.exit, label %28, !llvm.loop !34

draw_edges_lr.exit:                               ; preds = %20, %12, %28, %.preheader54, %.preheader52, %.preheader51
  %36 = sext i32 %4 to i64
  %37 = sub nsw i64 0, %36
  %38 = getelementptr inbounds i8, ptr %0, i64 %37
  %39 = add nsw i32 %3, -1
  %40 = sext i32 %39 to i64
  %41 = mul nsw i64 %1, %40
  %42 = getelementptr inbounds i8, ptr %38, i64 %41
  %43 = and i32 %6, 1
  %.not = icmp ne i32 %43, 0
  %44 = icmp sgt i32 %5, 0
  %or.cond = and i1 %.not, %44
  br i1 %or.cond, label %.lr.ph65, label %.loopexit50

.lr.ph65:                                         ; preds = %draw_edges_lr.exit
  %reass.add42 = shl i32 %4, 1
  %45 = add i32 %reass.add42, %2
  %46 = sext i32 %45 to i64
  %wide.trip.count = zext nneg i32 %5 to i64
  br label %47

47:                                               ; preds = %.lr.ph65, %47
  %indvars.iv = phi i64 [ 0, %.lr.ph65 ], [ %indvars.iv.next, %47 ]
  %indvars.iv.next.neg = xor i64 %indvars.iv, -1
  %indvars.iv.next = add nuw nsw i64 %indvars.iv, 1
  %.neg = mul i64 %1, %indvars.iv.next.neg
  %48 = getelementptr inbounds i8, ptr %38, i64 %.neg
  tail call void @llvm.memcpy.p0.p0.i64(ptr align 1 %48, ptr align 1 %38, i64 %46, i1 false)
  %exitcond74.not = icmp eq i64 %indvars.iv.next, %wide.trip.count
  br i1 %exitcond74.not, label %.loopexit50, label %47, !llvm.loop !35

.loopexit50:                                      ; preds = %47, %draw_edges_lr.exit
  %49 = and i32 %6, 2
  %.not41 = icmp ne i32 %49, 0
  %or.cond68 = and i1 %.not41, %44
  br i1 %or.cond68, label %.lr.ph67, label %.loopexit

.lr.ph67:                                         ; preds = %.loopexit50
  %reass.add = shl i32 %4, 1
  %50 = add i32 %reass.add, %2
  %51 = sext i32 %50 to i64
  %wide.trip.count78 = zext nneg i32 %5 to i64
  br label %52

52:                                               ; preds = %.lr.ph67, %52
  %indvars.iv75 = phi i64 [ 0, %.lr.ph67 ], [ %indvars.iv.next76, %52 ]
  %indvars.iv.next76 = add nuw nsw i64 %indvars.iv75, 1
  %53 = mul nsw i64 %1, %indvars.iv.next76
  %54 = getelementptr inbounds i8, ptr %42, i64 %53
  tail call void @llvm.memcpy.p0.p0.i64(ptr align 1 %54, ptr align 1 %42, i64 %51, i1 false)
  %exitcond79.not = icmp eq i64 %indvars.iv.next76, %wide.trip.count78
  br i1 %exitcond79.not, label %.loopexit, label %52, !llvm.loop !36

.loopexit:                                        ; preds = %52, %.loopexit50
  ret void
}